target datalayout = "e-m:e-p270:32:32-p271:32:32-p272:64:64-i64:64-i128:128-f80:128-n8:16:32:64-S128"
target triple = "x86_64-unknown-linux-gnu"

%class.params_ref = type { ptr }
%"class.smt::theory_fpa" = type { %"class.smt::theory.base", %class.th_rewriter, %class.fpa2bv_converter_wrapped, %struct.fpa2bv_rewriter, %class.trail_stack, ptr, ptr, ptr, ptr, %class.obj_map.65, i8, [7 x i8], %class.obj_hashtable.70 }
%"class.smt::theory.base" = type <{ ptr, i32, [4 x i8], ptr, ptr, %class.ptr_vector, %class.svector, i32, i8 }>
%class.ptr_vector = type { %class.vector }
%class.vector = type { ptr }
%class.svector = type { %class.vector.0 }
%class.vector.0 = type { ptr }
%class.th_rewriter = type { ptr, %class.params_ref }
%class.fpa2bv_converter_wrapped = type { %class.fpa2bv_converter, ptr }
%class.fpa2bv_converter = type { ptr, ptr, %class.bool_rewriter, %class.bv_util, %class.arith_util, %"class.datatype::util", %class.seq_util, %class.fpa_util, ptr, ptr, ptr, i8, [7 x i8], %class.obj_map.36, %class.obj_map.36, %class.obj_map.13, %class.obj_map.41, %class.ref_vector.33 }
%class.bool_rewriter = type { ptr, i8, i8, i8, i8, i8, i8, i32, i8, i32, i32, i8, %class.ptr_vector.1, %class.ptr_vector.1, %class.svector, %class.svector }
%class.ptr_vector.1 = type { %class.vector.2 }
%class.vector.2 = type { ptr }
%class.bv_util = type { %class.bv_recognizers, ptr, ptr }
%class.bv_recognizers = type { i32 }
%class.arith_util = type { ptr, ptr }
%"class.datatype::util" = type { ptr, i32, ptr, %class.obj_map, %class.obj_map.3, %class.obj_map.8, %class.obj_map.13, %class.obj_map.13, %class.obj_map.13, %class.obj_map.18, %class.obj_map.18, %class.obj_map.18, %class.ref_vector, %class.ref_vector_core.25, %class.ptr_vector.28, i32, %class.ptr_vector.30 }
%class.obj_map = type { %class.core_hashtable }
%class.core_hashtable = type <{ ptr, i32, i32, i32, [4 x i8] }>
%class.obj_map.3 = type { %class.core_hashtable.4 }
%class.core_hashtable.4 = type <{ ptr, i32, i32, i32, [4 x i8] }>
%class.obj_map.8 = type { %class.core_hashtable.9 }
%class.core_hashtable.9 = type <{ ptr, i32, i32, i32, [4 x i8] }>
%class.obj_map.18 = type { %class.core_hashtable.19 }
%class.core_hashtable.19 = type <{ ptr, i32, i32, i32, [4 x i8] }>
%class.ref_vector = type { %class.ref_vector_core }
%class.ref_vector_core = type { %class.ref_manager_wrapper, %class.ptr_vector.23 }
%class.ref_manager_wrapper = type { ptr }
%class.ptr_vector.23 = type { %class.vector.24 }
%class.vector.24 = type { ptr }
%class.ref_vector_core.25 = type { %class.ptr_vector.26 }
%class.ptr_vector.26 = type { %class.vector.27 }
%class.vector.27 = type { ptr }
%class.ptr_vector.28 = type { %class.vector.29 }
%class.vector.29 = type { ptr }
%class.ptr_vector.30 = type { %class.vector.31 }
%class.vector.31 = type { ptr }
%class.seq_util = type { ptr, ptr, ptr, i32, [4 x i8], %"class.seq_util::str", %"class.seq_util::rex" }
%"class.seq_util::str" = type <{ ptr, ptr, i32, [4 x i8] }>
%"class.seq_util::rex" = type { ptr, ptr, i32, %class.vector.32, %class.ref_vector.33, %"struct.seq_util::rex::info", %"struct.seq_util::rex::info" }
%class.vector.32 = type { ptr }
%"struct.seq_util::rex::info" = type { i32, i8, i32, i32 }
%class.fpa_util = type { ptr, ptr, i32, %class.arith_util, %class.bv_util }
%class.obj_map.36 = type { %class.core_hashtable.37 }
%class.core_hashtable.37 = type <{ ptr, i32, i32, i32, [4 x i8] }>
%class.obj_map.13 = type { %class.core_hashtable.14 }
%class.core_hashtable.14 = type <{ ptr, i32, i32, i32, [4 x i8] }>
%class.obj_map.41 = type { %class.core_hashtable.42 }
%class.core_hashtable.42 = type <{ ptr, i32, i32, i32, [4 x i8] }>
%class.ref_vector.33 = type { %class.ref_vector_core.34 }
%class.ref_vector_core.34 = type { %class.ref_manager_wrapper.35, %class.ptr_vector.1 }
%class.ref_manager_wrapper.35 = type { ptr }
%struct.fpa2bv_rewriter = type { %class.rewriter_tpl, %struct.fpa2bv_rewriter_cfg }
%class.rewriter_tpl = type { %class.rewriter_core, ptr, i32, %class.ptr_vector.1, %class.var_shifter, %class.inv_var_shifter, %class.obj_ref, %class.obj_ref.59, %class.obj_ref.59, %class.svector }
%class.rewriter_core = type { ptr, ptr, i8, i8, %class.ptr_vector.46, ptr, %class.svector.48, %class.ref_vector.33, %class.ptr_vector.46, ptr, %class.ref_vector.50, %class.obj_hashtable, ptr, i32, %class.svector.57 }
%class.svector.48 = type { %class.vector.49 }
%class.vector.49 = type { ptr }
%class.ptr_vector.46 = type { %class.vector.47 }
%class.vector.47 = type { ptr }
%class.ref_vector.50 = type { %class.ref_vector_core.51 }
%class.ref_vector_core.51 = type { %class.ref_manager_wrapper.52, %class.ptr_vector.53 }
%class.ref_manager_wrapper.52 = type { ptr }
%class.ptr_vector.53 = type { %class.vector.54 }
%class.vector.54 = type { ptr }
%class.obj_hashtable = type { %class.core_hashtable.base.56, [4 x i8] }
%class.core_hashtable.base.56 = type <{ ptr, i32, i32, i32 }>
%class.svector.57 = type { %class.vector.58 }
%class.vector.58 = type { ptr }
%class.var_shifter = type <{ %class.var_shifter_core, i32, i32, i32, [4 x i8] }>
%class.var_shifter_core = type { %class.rewriter_core }
%class.inv_var_shifter = type <{ %class.var_shifter_core, i32, [4 x i8] }>
%class.obj_ref = type { ptr, ptr }
%class.obj_ref.59 = type { ptr, ptr }
%struct.fpa2bv_rewriter_cfg = type <{ ptr, %class.ref_vector.33, ptr, %class.ref_vector.60, i64, i32, [4 x i8] }>
%class.ref_vector.60 = type { %class.ref_vector_core.61 }
%class.ref_vector_core.61 = type { %class.ref_manager_wrapper.62, %class.ptr_vector.30 }
%class.ref_manager_wrapper.62 = type { ptr }
%class.trail_stack = type { %class.ptr_vector.63, %class.svector, %class.region }
%class.ptr_vector.63 = type { %class.vector.64 }
%class.vector.64 = type { ptr }
%class.region = type { ptr, ptr, ptr, ptr, ptr }
%class.obj_map.65 = type { %class.core_hashtable.66 }
%class.core_hashtable.66 = type <{ ptr, i32, i32, i32, [4 x i8] }>
%class.obj_hashtable.70 = type { %class.core_hashtable.base.74, [4 x i8] }
%class.core_hashtable.base.74 = type <{ ptr, i32, i32, i32 }>

; Function Attrs: mustprogress nounwind uwtable
define linkonce_odr hidden noundef i32 @_ZNK6vectorIP5trailLb0EjE4sizeEv(ptr noundef nonnull align 8 dereferenceable(8) %this) #4 comdat align 2 {
entry:
  %retval = alloca i32, align 4
  %this.addr = alloca ptr, align 8
  store ptr %this, ptr %this.addr, align 8
  %this1 = load ptr, ptr %this.addr, align 8
  %m_data = getelementptr inbounds %class.vector.64, ptr %this1, i32 0, i32 0
  %0 = load ptr, ptr %m_data, align 8
  %cmp = icmp eq ptr %0, null
  br i1 %cmp, label %if.then, label %if.end

if.then:                                          ; preds = %entry
  store i32 0, ptr %retval, align 4
  br label %return

if.end:                                           ; preds = %entry
  %m_data2 = getelementptr inbounds %class.vector.64, ptr %this1, i32 0, i32 0
  %1 = load ptr, ptr %m_data2, align 8
  %arrayidx = getelementptr inbounds i32, ptr %1, i64 -1
  %2 = load i32, ptr %arrayidx, align 4
  store i32 %2, ptr %retval, align 4
  br label %return

return:                                           ; preds = %if.end, %if.then
  %3 = load i32, ptr %retval, align 4
  ret i32 %3
}

; Function Attrs: mustprogress nounwind uwtable
define linkonce_odr hidden void @_ZN6vectorIP5trailLb0EjE6shrinkEj(ptr noundef nonnull align 8 dereferenceable(8) %this, i32 noundef %s) #4 comdat align 2 {
entry:
  %this.addr = alloca ptr, align 8
  %s.addr = alloca i32, align 4
  store ptr %this, ptr %this.addr, align 8
  store i32 %s, ptr %s.addr, align 4
  %this1 = load ptr, ptr %this.addr, align 8
  %m_data = getelementptr inbounds %class.vector.64, ptr %this1, i32 0, i32 0
  %0 = load ptr, ptr %m_data, align 8
  %tobool = icmp ne ptr %0, null
  br i1 %tobool, label %if.then, label %if.else

if.then:                                          ; preds = %entry
  %1 = load i32, ptr %s.addr, align 4
  %m_data2 = getelementptr inbounds %class.vector.64, ptr %this1, i32 0, i32 0
  %2 = load ptr, ptr %m_data2, align 8
  %arrayidx = getelementptr inbounds i32, ptr %2, i64 -1
  store i32 %1, ptr %arrayidx, align 4
  br label %if.end

if.else:                                          ; preds = %entry
  br label %if.end

if.end:                                           ; preds = %if.else, %if.then
  ret void
}

; Function Attrs: mustprogress uwtable
define linkonce_odr hidden noundef ptr @_ZN6vectorIP5trailLb0EjE3endEv(ptr noundef nonnull align 8 dereferenceable(8) %this) #5 comdat align 2 {
entry:
  %this.addr = alloca ptr, align 8
  store ptr %this, ptr %this.addr, align 8
  %this1 = load ptr, ptr %this.addr, align 8
  %m_data = getelementptr inbounds %class.vector.64, ptr %this1, i32 0, i32 0
  %0 = load ptr, ptr %m_data, align 8
  %call = call noundef i32 @_ZNK6vectorIP5trailLb0EjE4sizeEv(ptr noundef nonnull align 8 dereferenceable(8) %this1)
  %idx.ext = zext i32 %call to i64
  %add.ptr = getelementptr inbounds ptr, ptr %0, i64 %idx.ext
  ret ptr %add.ptr
}

; Function Attrs: mustprogress nounwind uwtable
define linkonce_odr hidden noundef ptr @_ZN6vectorIP5trailLb0EjE5beginEv(ptr noundef nonnull align 8 dereferenceable(8) %this) #4 comdat align 2 {
entry:
  %this.addr = alloca ptr, align 8
  store ptr %this, ptr %this.addr, align 8
  %this1 = load ptr, ptr %this.addr, align 8
  %m_data = getelementptr inbounds %class.vector.64, ptr %this1, i32 0, i32 0
  %0 = load ptr, ptr %m_data, align 8
  ret ptr %0
}

; Function Attrs: mustprogress uwtable
define linkonce_odr hidden void @_ZN6region9pop_scopeEj(ptr noundef nonnull align 8 dereferenceable(40) %this, i32 noundef %num_scopes) #5 comdat align 2 {
entry:
  %this.addr = alloca ptr, align 8
  %num_scopes.addr = alloca i32, align 4
  %i = alloca i32, align 4
  store ptr %this, ptr %this.addr, align 8
  store i32 %num_scopes, ptr %num_scopes.addr, align 4
  %this1 = load ptr, ptr %this.addr, align 8
  store i32 0, ptr %i, align 4
  br label %for.cond

for.cond:                                         ; preds = %for.inc, %entry
  %0 = load i32, ptr %i, align 4
  %1 = load i32, ptr %num_scopes.addr, align 4
  %cmp = icmp ult i32 %0, %1
  br i1 %cmp, label %for.body, label %for.end

for.body:                                         ; preds = %for.cond
  call void @_ZN6region9pop_scopeEv(ptr noundef nonnull align 8 dereferenceable(40) %this1)
  br label %for.inc

for.inc:                                          ; preds = %for.body
  %2 = load i32, ptr %i, align 4
  %inc = add i32 %2, 1
  store i32 %inc, ptr %i, align 4
  br label %for.cond, !llvm.loop !24

for.end:                                          ; preds = %for.cond
  ret void
}

; Function Attrs: mustprogress nounwind uwtable
define linkonce_odr hidden void @_ZN6vectorIjLb0EjE6shrinkEj(ptr noundef nonnull align 8 dereferenceable(8) %this, i32 noundef %s) #4 comdat align 2 {
entry:
  %this.addr = alloca ptr, align 8
  %s.addr = alloca i32, align 4
  store ptr %this, ptr %this.addr, align 8
  store i32 %s, ptr %s.addr, align 4
  %this1 = load ptr, ptr %this.addr, align 8
  %m_data = getelementptr inbounds %class.vector.0, ptr %this1, i32 0, i32 0
  %0 = load ptr, ptr %m_data, align 8
  %tobool = icmp ne ptr %0, null
  br i1 %tobool, label %if.then, label %if.else

if.then:                                          ; preds = %entry
  %1 = load i32, ptr %s.addr, align 4
  %m_data2 = getelementptr inbounds %class.vector.0, ptr %this1, i32 0, i32 0
  %2 = load ptr, ptr %m_data2, align 8
  %arrayidx = getelementptr inbounds i32, ptr %2, i64 -1
  store i32 %1, ptr %arrayidx, align 4
  br label %if.end

if.else:                                          ; preds = %entry
  br label %if.end

if.end:                                           ; preds = %if.else, %if.then
  ret void
}

; Function Attrs: mustprogress uwtable
define linkonce_odr hidden void @_Z16undo_trail_stackR10ptr_vectorI5trailEj(ptr noundef nonnull align 8 dereferenceable(8) %s, i32 noundef %old_size) #5 comdat {
entry:
  %s.addr = alloca ptr, align 8
  %old_size.addr = alloca i32, align 4
  %begin = alloca ptr, align 8
  %it = alloca ptr, align 8
  store ptr %s, ptr %s.addr, align 8
  store i32 %old_size, ptr %old_size.addr, align 4
  %0 = load ptr, ptr %s.addr, align 8
  %call = call noundef ptr @_ZN6vectorIP5trailLb0EjE5beginEv(ptr noundef nonnull align 8 dereferenceable(8) %0)
  %1 = load i32, ptr %old_size.addr, align 4
  %idx.ext = zext i32 %1 to i64
  %add.ptr = getelementptr inbounds ptr, ptr %call, i64 %idx.ext
  store ptr %add.ptr, ptr %begin, align 8
  %2 = load ptr, ptr %s.addr, align 8
  %call1 = call noundef ptr @_ZN6vectorIP5trailLb0EjE3endEv(ptr noundef nonnull align 8 dereferenceable(8) %2)
  store ptr %call1, ptr %it, align 8
  br label %while.cond

while.cond:                                       ; preds = %while.body, %entry
  %3 = load ptr, ptr %it, align 8
  %4 = load ptr, ptr %begin, align 8
  %cmp = icmp ne ptr %3, %4
  br i1 %cmp, label %while.body, label %while.end

while.body:                                       ; preds = %while.cond
  %5 = load ptr, ptr %it, align 8
  %incdec.ptr = getelementptr inbounds ptr, ptr %5, i32 -1
  store ptr %incdec.ptr, ptr %it, align 8
  %6 = load ptr, ptr %it, align 8
  %7 = load ptr, ptr %6, align 8
  %vtable = load ptr, ptr %7, align 8
  %vfn = getelementptr inbounds ptr, ptr %vtable, i64 2
  %8 = load ptr, ptr %vfn, align 8
  call void %8(ptr noundef nonnull align 8 dereferenceable(8) %7)
  br label %while.cond, !llvm.loop !12

while.end:                                        ; preds = %while.cond
  %9 = load ptr, ptr %s.addr, align 8
  %10 = load i32, ptr %old_size.addr, align 4
  call void @_ZN6vectorIP5trailLb0EjE6shrinkEj(ptr noundef nonnull align 8 dereferenceable(8) %9, i32 noundef %10)
  ret void
}

; Function Attrs: mustprogress nounwind uwtable
define linkonce_odr hidden noundef nonnull align 4 dereferenceable(4) ptr @_ZN6vectorIjLb0EjEixEj(ptr noundef nonnull align 8 dereferenceable(8) %this, i32 noundef %idx) #4 comdat align 2 {
entry:
  %this.addr = alloca ptr, align 8
  %idx.addr = alloca i32, align 4
  store ptr %this, ptr %this.addr, align 8
  store i32 %idx, ptr %idx.addr, align 4
  %this1 = load ptr, ptr %this.addr, align 8
  %m_data = getelementptr inbounds %class.vector.0, ptr %this1, i32 0, i32 0
  %0 = load ptr, ptr %m_data, align 8
  %1 = load i32, ptr %idx.addr, align 4
  %idxprom = zext i32 %1 to i64
  %arrayidx = getelementptr inbounds i32, ptr %0, i64 %idxprom
  ret ptr %arrayidx
}

; Function Attrs: mustprogress nounwind uwtable
define linkonce_odr hidden noundef i32 @_ZNK6vectorIjLb0EjE4sizeEv(ptr noundef nonnull align 8 dereferenceable(8) %this) #4 comdat align 2 {
entry:
  %retval = alloca i32, align 4
  %this.addr = alloca ptr, align 8
  store ptr %this, ptr %this.addr, align 8
  %this1 = load ptr, ptr %this.addr, align 8
  %m_data = getelementptr inbounds %class.vector.0, ptr %this1, i32 0, i32 0
  %0 = load ptr, ptr %m_data, align 8
  %cmp = icmp eq ptr %0, null
  br i1 %cmp, label %if.then, label %if.end

if.then:                                          ; preds = %entry
  store i32 0, ptr %retval, align 4
  br label %return

if.end:                                           ; preds = %entry
  %m_data2 = getelementptr inbounds %class.vector.0, ptr %this1, i32 0, i32 0
  %1 = load ptr, ptr %m_data2, align 8
  %arrayidx = getelementptr inbounds i32, ptr %1, i64 -1
  %2 = load i32, ptr %arrayidx, align 4
  store i32 %2, ptr %retval, align 4
  br label %return

return:                                           ; preds = %if.end, %if.then
  %3 = load i32, ptr %retval, align 4
  ret i32 %3
}

; Function Attrs: mustprogress uwtable
define linkonce_odr hidden void @_ZN11trail_stack9pop_scopeEj(ptr noundef nonnull align 8 dereferenceable(56) %this, i32 noundef %num_scopes) #5 comdat align 2 {
entry:
  %this.addr = alloca ptr, align 8
  %num_scopes.addr = alloca i32, align 4
  %lvl = alloca i32, align 4
  %new_lvl = alloca i32, align 4
  %old_size = alloca i32, align 4
  store ptr %this, ptr %this.addr, align 8
  store i32 %num_scopes, ptr %num_scopes.addr, align 4
  %this1 = load ptr, ptr %this.addr, align 8
  %0 = load i32, ptr %num_scopes.addr, align 4
  %cmp = icmp eq i32 %0, 0
  br i1 %cmp, label %if.then, label %if.end

if.then:                                          ; preds = %entry
  br label %return

if.end:                                           ; preds = %entry
  %m_scopes = getelementptr inbounds %class.trail_stack, ptr %this1, i32 0, i32 1
  %call = call noundef i32 @_ZNK6vectorIjLb0EjE4sizeEv(ptr noundef nonnull align 8 dereferenceable(8) %m_scopes)
  store i32 %call, ptr %lvl, align 4
  %1 = load i32, ptr %lvl, align 4
  %2 = load i32, ptr %num_scopes.addr, align 4
  %sub = sub i32 %1, %2
  store i32 %sub, ptr %new_lvl, align 4
  %m_scopes2 = getelementptr inbounds %class.trail_stack, ptr %this1, i32 0, i32 1
  %3 = load i32, ptr %new_lvl, align 4
  %call3 = call noundef nonnull align 4 dereferenceable(4) ptr @_ZN6vectorIjLb0EjEixEj(ptr noundef nonnull align 8 dereferenceable(8) %m_scopes2, i32 noundef %3)
  %4 = load i32, ptr %call3, align 4
  store i32 %4, ptr %old_size, align 4
  %m_trail_stack = getelementptr inbounds %class.trail_stack, ptr %this1, i32 0, i32 0
  %5 = load i32, ptr %old_size, align 4
  call void @_Z16undo_trail_stackR10ptr_vectorI5trailEj(ptr noundef nonnull align 8 dereferenceable(8) %m_trail_stack, i32 noundef %5)
  %m_scopes4 = getelementptr inbounds %class.trail_stack, ptr %this1, i32 0, i32 1
  %6 = load i32, ptr %new_lvl, align 4
  call void @_ZN6vectorIjLb0EjE6shrinkEj(ptr noundef nonnull align 8 dereferenceable(8) %m_scopes4, i32 noundef %6)
  %m_region = getelementptr inbounds %class.trail_stack, ptr %this1, i32 0, i32 2
  %7 = load i32, ptr %num_scopes.addr, align 4
  call void @_ZN6region9pop_scopeEj(ptr noundef nonnull align 8 dereferenceable(40) %m_region, i32 noundef %7)
  br label %return

return:                                           ; preds = %if.end, %if.then
  ret void
}

; Function Attrs: mustprogress uwtable
define hidden void @_ZN3smt10theory_fpa12pop_scope_ehEj(ptr noundef nonnull align 8 dereferenceable(1584) %this, i32 noundef %num_scopes) unnamed_addr #5 align 2 {
entry:
  %this.addr = alloca ptr, align 8
  %num_scopes.addr = alloca i32, align 4
  store ptr %this, ptr %this.addr, align 8
  store i32 %num_scopes, ptr %num_scopes.addr, align 4
  %this1 = load ptr, ptr %this.addr, align 8
  %m_trail_stack = getelementptr inbounds %"class.smt::theory_fpa", ptr %this1, i32 0, i32 4
  %0 = load i32, ptr %num_scopes.addr, align 4
  call void @_ZN11trail_stack9pop_scopeEj(ptr noundef nonnull align 8 dereferenceable(56) %m_trail_stack, i32 noundef %0)
  %1 = load i32, ptr %num_scopes.addr, align 4
  call void @_ZN3smt6theory12pop_scope_ehEj(ptr noundef nonnull align 8 dereferenceable(53) %this1, i32 noundef %1)
  ret void
}