; Function Attrs: mustprogress uwtable
define hidden void @_ZN3smt10theory_fpa12pop_scope_ehEj(ptr noundef nonnull align 8 dereferenceable(1584) %this, i32 noundef %num_scopes) unnamed_addr #3 align 2 {
entry:
  %m_trail_stack = getelementptr inbounds i8, ptr %this, i64 1440
  %cmp.i = icmp eq i32 %num_scopes, 0
  br i1 %cmp.i, label %_ZN11trail_stack9pop_scopeEj.exit, label %if.end.i

if.end.i:                                         ; preds = %entry
  %m_scopes.i = getelementptr inbounds i8, ptr %this, i64 1448
  %0 = load ptr, ptr %m_scopes.i, align 8
  %cmp.i.i = icmp eq ptr %0, null
  br i1 %cmp.i.i, label %_ZNK6vectorIjLb0EjE4sizeEv.exit.i, label %if.end.i.i

if.end.i.i:                                       ; preds = %if.end.i
  %arrayidx.i.i = getelementptr inbounds i8, ptr %0, i64 -4
  %1 = load i32, ptr %arrayidx.i.i, align 4
  br label %_ZNK6vectorIjLb0EjE4sizeEv.exit.i

_ZNK6vectorIjLb0EjE4sizeEv.exit.i:                ; preds = %if.end.i.i, %if.end.i
  %retval.0.i.i = phi i32 [ %1, %if.end.i.i ], [ 0, %if.end.i ]
  %sub.i = sub i32 %retval.0.i.i, %num_scopes
  %idxprom.i.i = zext i32 %sub.i to i64
  %arrayidx.i4.i = getelementptr inbounds i32, ptr %0, i64 %idxprom.i.i
  %2 = load i32, ptr %arrayidx.i4.i, align 4
  %3 = load ptr, ptr %m_trail_stack, align 8
  %idx.ext.i.i = zext i32 %2 to i64
  %add.ptr.i.i = getelementptr inbounds ptr, ptr %3, i64 %idx.ext.i.i
  %cmp.i.i.i.i = icmp eq ptr %3, null
  br i1 %cmp.i.i.i.i, label %_ZN6vectorIP5trailLb0EjE3endEv.exit.i.i, label %if.end.i.i.i.i

if.end.i.i.i.i:                                   ; preds = %_ZNK6vectorIjLb0EjE4sizeEv.exit.i
  %arrayidx.i.i.i.i = getelementptr inbounds i8, ptr %3, i64 -4
  %4 = load i32, ptr %arrayidx.i.i.i.i, align 4
  %5 = zext i32 %4 to i64
  br label %_ZN6vectorIP5trailLb0EjE3endEv.exit.i.i

_ZN6vectorIP5trailLb0EjE3endEv.exit.i.i:          ; preds = %if.end.i.i.i.i, %_ZNK6vectorIjLb0EjE4sizeEv.exit.i
  %retval.0.i.i.i.i = phi i64 [ %5, %if.end.i.i.i.i ], [ 0, %_ZNK6vectorIjLb0EjE4sizeEv.exit.i ]
  %cmp.not6.i.i = icmp eq i64 %retval.0.i.i.i.i, %idx.ext.i.i
  br i1 %cmp.not6.i.i, label %while.end.i.i, label %while.body.preheader.i.i

while.body.preheader.i.i:                         ; preds = %_ZN6vectorIP5trailLb0EjE3endEv.exit.i.i
  %add.ptr.i.i.i = getelementptr inbounds ptr, ptr %3, i64 %retval.0.i.i.i.i
  br label %while.body.i.i

while.body.i.i:                                   ; preds = %while.body.i.i, %while.body.preheader.i.i
  %it.07.i.i = phi ptr [ %incdec.ptr.i.i, %while.body.i.i ], [ %add.ptr.i.i.i, %while.body.preheader.i.i ]
  %incdec.ptr.i.i = getelementptr inbounds i8, ptr %it.07.i.i, i64 -8
  %6 = load ptr, ptr %incdec.ptr.i.i, align 8
  %vtable.i.i = load ptr, ptr %6, align 8
  %vfn.i.i = getelementptr inbounds i8, ptr %vtable.i.i, i64 16
  %7 = load ptr, ptr %vfn.i.i, align 8
  tail call void %7(ptr noundef nonnull align 8 dereferenceable(8) %6)
  %cmp.not.i.i = icmp eq ptr %incdec.ptr.i.i, %add.ptr.i.i
  br i1 %cmp.not.i.i, label %while.end.loopexit.i.i, label %while.body.i.i, !llvm.loop !4

while.end.loopexit.i.i:                           ; preds = %while.body.i.i
  %.pre.i.i = load ptr, ptr %m_trail_stack, align 8
  br label %while.end.i.i

while.end.i.i:                                    ; preds = %while.end.loopexit.i.i, %_ZN6vectorIP5trailLb0EjE3endEv.exit.i.i
  %8 = phi ptr [ %.pre.i.i, %while.end.loopexit.i.i ], [ %3, %_ZN6vectorIP5trailLb0EjE3endEv.exit.i.i ]
  %tobool.not.i.i.i = icmp eq ptr %8, null
  br i1 %tobool.not.i.i.i, label %_Z16undo_trail_stackR10ptr_vectorI5trailEj.exit.i, label %if.then.i.i.i

if.then.i.i.i:                                    ; preds = %while.end.i.i
  %arrayidx.i.i.i = getelementptr inbounds i8, ptr %8, i64 -4
  store i32 %2, ptr %arrayidx.i.i.i, align 4
  br label %_Z16undo_trail_stackR10ptr_vectorI5trailEj.exit.i

_Z16undo_trail_stackR10ptr_vectorI5trailEj.exit.i: ; preds = %if.then.i.i.i, %while.end.i.i
  %9 = load ptr, ptr %m_scopes.i, align 8
  %tobool.not.i.i = icmp eq ptr %9, null
  br i1 %tobool.not.i.i, label %_ZN6vectorIjLb0EjE6shrinkEj.exit.i, label %if.then.i.i

if.then.i.i:                                      ; preds = %_Z16undo_trail_stackR10ptr_vectorI5trailEj.exit.i
  %arrayidx.i5.i = getelementptr inbounds i8, ptr %9, i64 -4
  store i32 %sub.i, ptr %arrayidx.i5.i, align 4
  br label %_ZN6vectorIjLb0EjE6shrinkEj.exit.i

_ZN6vectorIjLb0EjE6shrinkEj.exit.i:               ; preds = %if.then.i.i, %_Z16undo_trail_stackR10ptr_vectorI5trailEj.exit.i
  %m_region.i = getelementptr inbounds i8, ptr %this, i64 1456
  br label %for.body.i.i

for.body.i.i:                                     ; preds = %for.body.i.i, %_ZN6vectorIjLb0EjE6shrinkEj.exit.i
  %i.03.i.i = phi i32 [ %inc.i.i, %for.body.i.i ], [ 0, %_ZN6vectorIjLb0EjE6shrinkEj.exit.i ]
  tail call void @_ZN6region9pop_scopeEv(ptr noundef nonnull align 8 dereferenceable(40) %m_region.i)
  %inc.i.i = add nuw i32 %i.03.i.i, 1
  %exitcond.not.i.i = icmp eq i32 %inc.i.i, %num_scopes
  br i1 %exitcond.not.i.i, label %_ZN11trail_stack9pop_scopeEj.exit, label %for.body.i.i, !llvm.loop !6

_ZN11trail_stack9pop_scopeEj.exit:                ; preds = %for.body.i.i, %entry
  tail call void @_ZN3smt6theory12pop_scope_ehEj(ptr noundef nonnull align 8 dereferenceable(53) %this, i32 noundef %num_scopes)
  ret void
}